target datalayout = "e-m:e-p270:32:32-p271:32:32-p272:64:64-i64:64-i128:128-f80:128-n8:16:32:64-S128"
target triple = "x86_64-pc-linux-gnu"

%"class.llvm::SmallVectorBase" = type { ptr, i32, i32 }
%"class.llvm::DebugLoc" = type { %"class.llvm::TypedTrackingMDRef" }
%"class.llvm::TypedTrackingMDRef" = type { %"class.llvm::TrackingMDRef" }
%"class.llvm::TrackingMDRef" = type { ptr }
%"class.llvm::MachineInstrBuilder" = type { ptr, ptr }
%"class.llvm::MachineInstr" = type <{ %"class.llvm::ilist_node_with_parent", ptr, ptr, ptr, [3 x i8], %"class.llvm::ArrayRecycler<llvm::MachineOperand>::Capacity", i32, %"class.llvm::PointerSumType", %"class.llvm::DebugLoc", i32, i16, [2 x i8] }>
%"class.llvm::ilist_node_with_parent" = type { %"class.llvm::ilist_node.275" }
%"class.llvm::ilist_node.275" = type { %"class.llvm::ilist_node_impl.276" }
%"class.llvm::ilist_node_impl.276" = type { %"class.llvm::ilist_node_base.277" }
%"class.llvm::ilist_node_base.277" = type { %"class.llvm::ilist_detail::node_base_prevnext.278" }
%"class.llvm::ilist_detail::node_base_prevnext.278" = type { %"class.llvm::PointerIntPair", ptr }
%"class.llvm::PointerIntPair" = type { %"struct.llvm::detail::PunnedPointer" }
%"struct.llvm::detail::PunnedPointer" = type { [8 x i8] }
%"class.llvm::ArrayRecycler<llvm::MachineOperand>::Capacity" = type { i8 }
%"class.llvm::PointerSumType" = type { %"union.llvm::PointerSumType<llvm::MachineInstr::ExtraInfoInlineKinds, llvm::PointerSumTypeMember<0, llvm::MachineMemOperand *>, llvm::PointerSumTypeMember<1, llvm::MCSymbol *>, llvm::PointerSumTypeMember<2, llvm::MCSymbol *>, llvm::PointerSumTypeMember<3, llvm::MachineInstr::ExtraInfo *>>::StorageT" }
%"union.llvm::PointerSumType<llvm::MachineInstr::ExtraInfoInlineKinds, llvm::PointerSumTypeMember<0, llvm::MachineMemOperand *>, llvm::PointerSumTypeMember<1, llvm::MCSymbol *>, llvm::PointerSumTypeMember<2, llvm::MCSymbol *>, llvm::PointerSumTypeMember<3, llvm::MachineInstr::ExtraInfo *>>::StorageT" = type { i64 }
%"class.llvm::MCInstrDesc" = type { i16, i16, i8, i8, i16, i8, i8, i16, i16, i64, i64 }
%class.anon.505 = type { ptr, ptr, ptr, ptr }

; Function Attrs: mustprogress nounwind uwtable
define linkonce_odr hidden noundef zeroext i1 @_ZNK4llvm12MachineInstr17isBundledWithSuccEv(ptr noundef nonnull align 8 dereferenceable(70) %0) #0 comdat align 2 {
  %2 = alloca ptr, align 8
  store ptr %0, ptr %2, align 8
  %3 = load ptr, ptr %2, align 8
  %4 = call noundef zeroext i1 @_ZNK4llvm12MachineInstr7getFlagENS0_6MIFlagE(ptr noundef nonnull align 8 dereferenceable(70) %3, i32 noundef 8)
  ret i1 %4
}

; Function Attrs: mustprogress nounwind uwtable
define linkonce_odr hidden noundef i64 @_ZNK4llvm11MCInstrDesc8getFlagsEv(ptr noundef nonnull align 8 dereferenceable(32) %0) #0 comdat align 2 {
  %2 = alloca ptr, align 8
  store ptr %0, ptr %2, align 8
  %3 = load ptr, ptr %2, align 8
  %4 = getelementptr inbounds nuw %"class.llvm::MCInstrDesc", ptr %3, i32 0, i32 9
  %5 = load i64, ptr %4, align 8
  ret i64 %5
}

; Function Attrs: mustprogress nounwind uwtable
define linkonce_odr hidden noundef nonnull align 8 dereferenceable(32) ptr @_ZNK4llvm12MachineInstr7getDescEv(ptr noundef nonnull align 8 dereferenceable(70) %0) #0 comdat align 2 {
  %2 = alloca ptr, align 8
  store ptr %0, ptr %2, align 8
  %3 = load ptr, ptr %2, align 8
  %4 = getelementptr inbounds nuw %"class.llvm::MachineInstr", ptr %3, i32 0, i32 1
  %5 = load ptr, ptr %4, align 8
  ret ptr %5
}

; Function Attrs: mustprogress nounwind uwtable
define linkonce_odr hidden noundef zeroext i1 @_ZNK4llvm12MachineInstr17isBundledWithPredEv(ptr noundef nonnull align 8 dereferenceable(70) %0) #0 comdat align 2 {
  %2 = alloca ptr, align 8
  store ptr %0, ptr %2, align 8
  %3 = load ptr, ptr %2, align 8
  %4 = call noundef zeroext i1 @_ZNK4llvm12MachineInstr7getFlagENS0_6MIFlagE(ptr noundef nonnull align 8 dereferenceable(70) %3, i32 noundef 4)
  ret i1 %4
}

; Function Attrs: mustprogress nounwind uwtable
define linkonce_odr hidden noundef zeroext i1 @_ZNK4llvm12MachineInstr9isBundledEv(ptr noundef nonnull align 8 dereferenceable(70) %0) #0 comdat align 2 {
  %2 = alloca ptr, align 8
  store ptr %0, ptr %2, align 8
  %3 = load ptr, ptr %2, align 8
  %4 = call noundef zeroext i1 @_ZNK4llvm12MachineInstr17isBundledWithPredEv(ptr noundef nonnull align 8 dereferenceable(70) %3)
  br i1 %4, label %7, label %5

5:                                                ; preds = %1
  %6 = call noundef zeroext i1 @_ZNK4llvm12MachineInstr17isBundledWithSuccEv(ptr noundef nonnull align 8 dereferenceable(70) %3)
  br label %7

7:                                                ; preds = %5, %1
  %8 = phi i1 [ true, %1 ], [ %6, %5 ]
  ret i1 %8
}

; Function Attrs: mustprogress nounwind uwtable
define linkonce_odr hidden void @_ZN4llvm12MachineInstr8setFlagsEj(ptr noundef nonnull align 8 dereferenceable(70) %0, i32 noundef %1) #0 comdat align 2 {
  %3 = alloca ptr, align 8
  %4 = alloca i32, align 4
  %5 = alloca i32, align 4
  store ptr %0, ptr %3, align 8
  store i32 %1, ptr %4, align 4
  %6 = load ptr, ptr %3, align 8
  store i32 12, ptr %5, align 4
  %7 = getelementptr inbounds nuw %"class.llvm::MachineInstr", ptr %6, i32 0, i32 6
  %8 = load i32, ptr %7, align 4
  %9 = and i32 %8, 16777215
  %10 = load i32, ptr %5, align 4
  %11 = and i32 %9, %10
  %12 = load i32, ptr %4, align 4
  %13 = load i32, ptr %5, align 4
  %14 = xor i32 %13, -1
  %15 = and i32 %12, %14
  %16 = or i32 %11, %15
  %17 = getelementptr inbounds nuw %"class.llvm::MachineInstr", ptr %6, i32 0, i32 6
  %18 = load i32, ptr %17, align 4
  %19 = and i32 %16, 16777215
  %20 = and i32 %18, -16777216
  %21 = or i32 %20, %19
  store i32 %21, ptr %17, align 4
  ret void
}

; Function Attrs: mustprogress nounwind uwtable
define linkonce_odr hidden noundef zeroext i1 @_ZNK4llvm12MachineInstr7getFlagENS0_6MIFlagE(ptr noundef nonnull align 8 dereferenceable(70) %0, i32 noundef %1) #0 comdat align 2 {
  %3 = alloca ptr, align 8
  %4 = alloca i32, align 4
  store ptr %0, ptr %3, align 8
  store i32 %1, ptr %4, align 4
  %5 = load ptr, ptr %3, align 8
  %6 = getelementptr inbounds nuw %"class.llvm::MachineInstr", ptr %5, i32 0, i32 6
  %7 = load i32, ptr %6, align 4
  %8 = and i32 %7, 16777215
  %9 = load i32, ptr %4, align 4
  %10 = and i32 %8, %9
  %11 = icmp ne i32 %10, 0
  ret i1 %11
}

; Function Attrs: mustprogress nounwind uwtable
define linkonce_odr hidden noundef zeroext i1 @_ZNK4llvm12MachineInstr11hasPropertyEjNS0_9QueryTypeE(ptr noundef nonnull align 8 dereferenceable(70) %0, i32 noundef %1, i32 noundef %2) #0 comdat align 2 {
  %4 = alloca i1, align 1
  %5 = alloca ptr, align 8
  %6 = alloca i32, align 4
  %7 = alloca i32, align 4
  store ptr %0, ptr %5, align 8
  store i32 %1, ptr %6, align 4
  store i32 %2, ptr %7, align 4
  %8 = load ptr, ptr %5, align 8
  %9 = load i32, ptr %7, align 4
  %10 = icmp eq i32 %9, 0
  br i1 %10, label %15, label %11

11:                                               ; preds = %3
  %12 = call noundef zeroext i1 @_ZNK4llvm12MachineInstr9isBundledEv(ptr noundef nonnull align 8 dereferenceable(70) %8)
  br i1 %12, label %13, label %15

13:                                               ; preds = %11
  %14 = call noundef zeroext i1 @_ZNK4llvm12MachineInstr17isBundledWithPredEv(ptr noundef nonnull align 8 dereferenceable(70) %8)
  br i1 %14, label %15, label %23

15:                                               ; preds = %13, %11, %3
  %16 = call noundef nonnull align 8 dereferenceable(32) ptr @_ZNK4llvm12MachineInstr7getDescEv(ptr noundef nonnull align 8 dereferenceable(70) %8)
  %17 = call noundef i64 @_ZNK4llvm11MCInstrDesc8getFlagsEv(ptr noundef nonnull align 8 dereferenceable(32) %16)
  %18 = load i32, ptr %6, align 4
  %19 = zext i32 %18 to i64
  %20 = shl i64 1, %19
  %21 = and i64 %17, %20
  %22 = icmp ne i64 %21, 0
  store i1 %22, ptr %4, align 1
  br label %29

23:                                               ; preds = %13
  %24 = load i32, ptr %6, align 4
  %25 = zext i32 %24 to i64
  %26 = shl i64 1, %25
  %27 = load i32, ptr %7, align 4
  %28 = call noundef zeroext i1 @_ZNK4llvm12MachineInstr19hasPropertyInBundleEmNS0_9QueryTypeE(ptr noundef nonnull align 8 dereferenceable(70) %8, i64 noundef %26, i32 noundef %27)
  store i1 %28, ptr %4, align 1
  br label %29

29:                                               ; preds = %23, %15
  %30 = load i1, ptr %4, align 1
  ret i1 %30
}

; Function Attrs: mustprogress nounwind uwtable
define linkonce_odr hidden noundef nonnull align 8 dereferenceable(16) ptr @_ZNK4llvm19MachineInstrBuilder10setMIFlagsEj(ptr noundef nonnull align 8 dereferenceable(16) %0, i32 noundef %1) #0 comdat align 2 {
  %3 = alloca ptr, align 8
  %4 = alloca i32, align 4
  store ptr %0, ptr %3, align 8
  store i32 %1, ptr %4, align 4
  %5 = load ptr, ptr %3, align 8
  %6 = getelementptr inbounds nuw %"class.llvm::MachineInstrBuilder", ptr %5, i32 0, i32 1
  %7 = load ptr, ptr %6, align 8
  %8 = load i32, ptr %4, align 4
  call void @_ZN4llvm12MachineInstr8setFlagsEj(ptr noundef nonnull align 8 dereferenceable(70) %7, i32 noundef %8)
  ret ptr %5
}

; Function Attrs: mustprogress nounwind uwtable
define linkonce_odr hidden noundef ptr @_ZNK4llvm19MachineInstrBuildercvPNS_12MachineInstrEEv(ptr noundef nonnull align 8 dereferenceable(16) %0) #0 comdat align 2 {
  %2 = alloca ptr, align 8
  store ptr %0, ptr %2, align 8
  %3 = load ptr, ptr %2, align 8
  %4 = getelementptr inbounds nuw %"class.llvm::MachineInstrBuilder", ptr %3, i32 0, i32 1
  %5 = load ptr, ptr %4, align 8
  ret ptr %5
}

; Function Attrs: mustprogress nounwind uwtable
define linkonce_odr hidden noundef zeroext i1 @_ZNK4llvm12MachineInstr19mayRaiseFPExceptionEv(ptr noundef nonnull align 8 dereferenceable(70) %0) #0 comdat align 2 {
  %2 = alloca ptr, align 8
  store ptr %0, ptr %2, align 8
  %3 = load ptr, ptr %2, align 8
  %4 = call noundef zeroext i1 @_ZNK4llvm12MachineInstr11hasPropertyEjNS0_9QueryTypeE(ptr noundef nonnull align 8 dereferenceable(70) %3, i32 noundef 21, i32 noundef 1)
  br i1 %4, label %5, label %8

5:                                                ; preds = %1
  %6 = call noundef zeroext i1 @_ZNK4llvm12MachineInstr7getFlagENS0_6MIFlagE(ptr noundef nonnull align 8 dereferenceable(70) %3, i32 noundef 16384)
  %7 = xor i1 %6, true
  br label %8

8:                                                ; preds = %5, %1
  %9 = phi i1 [ false, %1 ], [ %7, %5 ]
  ret i1 %9
}

; Function Attrs: mustprogress nounwind uwtable
define linkonce_odr hidden noundef ptr @_ZNK4llvm19MachineInstrBuilderptEv(ptr noundef nonnull align 8 dereferenceable(16) %0) #0 comdat align 2 {
  %2 = alloca ptr, align 8
  store ptr %0, ptr %2, align 8
  %3 = load ptr, ptr %2, align 8
  %4 = getelementptr inbounds nuw %"class.llvm::MachineInstrBuilder", ptr %3, i32 0, i32 1
  %5 = load ptr, ptr %4, align 8
  ret ptr %5
}

; Function Attrs: mustprogress nounwind uwtable
define linkonce_odr hidden noundef ptr @_ZN4llvm25SmallVectorTemplateCommonINS_19MachineInstrBuilderEvE3endEv(ptr noundef nonnull align 8 dereferenceable(16) %0) #0 comdat align 2 {
  %2 = alloca ptr, align 8
  store ptr %0, ptr %2, align 8
  %3 = load ptr, ptr %2, align 8
  %4 = call noundef ptr @_ZN4llvm25SmallVectorTemplateCommonINS_19MachineInstrBuilderEvE5beginEv(ptr noundef nonnull align 8 dereferenceable(16) %3)
  %5 = call noundef i64 @_ZNK4llvm15SmallVectorBaseIjE4sizeEv(ptr noundef nonnull align 8 dereferenceable(16) %3)
  %6 = getelementptr inbounds %"class.llvm::MachineInstrBuilder", ptr %4, i64 %5
  ret ptr %6
}

; Function Attrs: mustprogress nounwind uwtable
define linkonce_odr hidden noundef ptr @_ZN4llvm25SmallVectorTemplateCommonINS_19MachineInstrBuilderEvE5beginEv(ptr noundef nonnull align 8 dereferenceable(16) %0) #0 comdat align 2 {
  %2 = alloca ptr, align 8
  store ptr %0, ptr %2, align 8
  %3 = load ptr, ptr %2, align 8
  %4 = getelementptr inbounds nuw %"class.llvm::SmallVectorBase", ptr %3, i32 0, i32 0
  %5 = load ptr, ptr %4, align 8
  ret ptr %5
}

; Function Attrs: mustprogress nounwind uwtable
define internal void @_ZZNK4llvm20GIMatchTableExecutor17executeMatchTableIKN12_GLOBAL__N_124RISCVInstructionSelectorENS_6BitsetILj89EEEMS3_KFSt8optionalINS_11SmallVectorISt8functionIFvRNS_19MachineInstrBuilderEEELj4EEEERNS_14MachineOperandEEMS3_KFvSB_RKNS_12MachineInstrEiEEEbRT_RNS0_12MatcherStateERKNS0_10ExecInfoTyIT0_T1_T2_EERNS_16MachineIRBuilderEPKhRKNS_15TargetInstrInfoERNS_19MachineRegisterInfoERKNS_18TargetRegisterInfoERKNS_16RegisterBankInfoERKSU_PNS_15CodeGenCoverageEENKUlvE0_clEv(ptr noundef nonnull align 8 dereferenceable(32) %0) #0 align 2 {
  %2 = alloca ptr, align 8
  %3 = alloca ptr, align 8
  %4 = alloca ptr, align 8
  %5 = alloca ptr, align 8
  %6 = alloca %"class.llvm::MachineInstrBuilder", align 8
  %7 = alloca i16, align 2
  store ptr %0, ptr %2, align 8
  %8 = load ptr, ptr %2, align 8
  %9 = getelementptr inbounds nuw %class.anon.505, ptr %8, i32 0, i32 0
  %10 = load ptr, ptr %9, align 8
  store ptr %10, ptr %3, align 8
  %11 = load ptr, ptr %3, align 8
  %12 = call noundef ptr @_ZN4llvm25SmallVectorTemplateCommonINS_19MachineInstrBuilderEvE5beginEv(ptr noundef nonnull align 8 dereferenceable(16) %11)
  store ptr %12, ptr %4, align 8
  %13 = load ptr, ptr %3, align 8
  %14 = call noundef ptr @_ZN4llvm25SmallVectorTemplateCommonINS_19MachineInstrBuilderEvE3endEv(ptr noundef nonnull align 8 dereferenceable(16) %13)
  store ptr %14, ptr %5, align 8
  br label %15

15:                                               ; preds = %66, %1
  %16 = load ptr, ptr %4, align 8
  %17 = load ptr, ptr %5, align 8
  %18 = icmp ne ptr %16, %17
  br i1 %18, label %19, label %69

19:                                               ; preds = %15
  %20 = load ptr, ptr %4, align 8
  call void @llvm.memcpy.p0.p0.i64(ptr align 8 %6, ptr align 8 %20, i64 16, i1 false)
  %21 = getelementptr inbounds nuw %class.anon.505, ptr %8, i32 0, i32 1
  %22 = load ptr, ptr %21, align 8
  %23 = load i16, ptr %22, align 2
  store i16 %23, ptr %7, align 2
  %24 = getelementptr inbounds nuw %class.anon.505, ptr %8, i32 0, i32 2
  %25 = load ptr, ptr %24, align 8
  %26 = load i8, ptr %25, align 1
  %27 = trunc i8 %26 to i1
  br i1 %27, label %28, label %36

28:                                               ; preds = %19
  %29 = call noundef ptr @_ZNK4llvm19MachineInstrBuilderptEv(ptr noundef nonnull align 8 dereferenceable(16) %6)
  %30 = call noundef zeroext i1 @_ZNK4llvm12MachineInstr19mayRaiseFPExceptionEv(ptr noundef nonnull align 8 dereferenceable(70) %29)
  br i1 %30, label %31, label %36

31:                                               ; preds = %28
  %32 = load i16, ptr %7, align 2
  %33 = zext i16 %32 to i32
  %34 = or i32 %33, 16384
  %35 = trunc i32 %34 to i16
  store i16 %35, ptr %7, align 2
  br label %36

36:                                               ; preds = %31, %28, %19
  %37 = getelementptr inbounds nuw %class.anon.505, ptr %8, i32 0, i32 3
  %38 = load ptr, ptr %37, align 8
  %39 = load ptr, ptr %38, align 8
  %40 = icmp ne ptr %39, null
  br i1 %40, label %41, label %49

41:                                               ; preds = %36
  %42 = getelementptr inbounds nuw %class.anon.505, ptr %8, i32 0, i32 3
  %43 = load ptr, ptr %42, align 8
  %44 = load ptr, ptr %43, align 8
  %45 = call noundef ptr @_ZNK4llvm19MachineInstrBuildercvPNS_12MachineInstrEEv(ptr noundef nonnull align 8 dereferenceable(16) %6)
  %46 = load ptr, ptr %44, align 8
  %47 = getelementptr inbounds ptr, ptr %46, i64 4
  %48 = load ptr, ptr %47, align 8
  call void %48(ptr noundef nonnull align 8 dereferenceable(72) %44, ptr noundef nonnull align 8 dereferenceable(70) %45)
  br label %49

49:                                               ; preds = %41, %36
  %50 = load i16, ptr %7, align 2
  %51 = zext i16 %50 to i32
  %52 = call noundef nonnull align 8 dereferenceable(16) ptr @_ZNK4llvm19MachineInstrBuilder10setMIFlagsEj(ptr noundef nonnull align 8 dereferenceable(16) %6, i32 noundef %51)
  %53 = getelementptr inbounds nuw %class.anon.505, ptr %8, i32 0, i32 3
  %54 = load ptr, ptr %53, align 8
  %55 = load ptr, ptr %54, align 8
  %56 = icmp ne ptr %55, null
  br i1 %56, label %57, label %65

57:                                               ; preds = %49
  %58 = getelementptr inbounds nuw %class.anon.505, ptr %8, i32 0, i32 3
  %59 = load ptr, ptr %58, align 8
  %60 = load ptr, ptr %59, align 8
  %61 = call noundef ptr @_ZNK4llvm19MachineInstrBuildercvPNS_12MachineInstrEEv(ptr noundef nonnull align 8 dereferenceable(16) %6)
  %62 = load ptr, ptr %60, align 8
  %63 = getelementptr inbounds ptr, ptr %62, i64 5
  %64 = load ptr, ptr %63, align 8
  call void %64(ptr noundef nonnull align 8 dereferenceable(72) %60, ptr noundef nonnull align 8 dereferenceable(70) %61)
  br label %65

65:                                               ; preds = %57, %49
  br label %66

66:                                               ; preds = %65
  %67 = load ptr, ptr %4, align 8
  %68 = getelementptr inbounds %"class.llvm::MachineInstrBuilder", ptr %67, i32 1
  store ptr %68, ptr %4, align 8
  br label %15

69:                                               ; preds = %15
  ret void
}